; Function Attrs: nofree norecurse nosync nounwind memory(read, argmem: readwrite, inaccessiblemem: none) uwtable
define void @Cba_NtkCollectGroupStats(ptr noundef readonly captures(none) %0, ptr noundef readonly captures(none) %1, ptr noundef writeonly captures(none) %2, ptr noundef writeonly captures(none) %3) local_unnamed_addr #14 {
  %5 = getelementptr i8, ptr %1, i64 4
  %.val = load i32, ptr %5, align 4
  %6 = icmp sgt i32 %.val, 0
  br i1 %6, label %.lr.ph, label %.critedge

.lr.ph:                                           ; preds = %4
  %7 = getelementptr i8, ptr %1, i64 8
  %.val16 = load ptr, ptr %7, align 8
  %8 = getelementptr i8, ptr %0, i64 112
  %.val17 = load ptr, ptr %8, align 8
  %9 = getelementptr i8, ptr %0, i64 128
  %.val18 = load ptr, ptr %9, align 8
  %wide.trip.count = zext nneg i32 %.val to i64
  br label %10

10:                                               ; preds = %.lr.ph, %10
  %indvars.iv = phi i64 [ 0, %.lr.ph ], [ %indvars.iv.next, %10 ]
  %.022 = phi i32 [ 0, %.lr.ph ], [ %25, %10 ]
  %.01421 = phi i32 [ 0, %.lr.ph ], [ %19, %10 ]
  %11 = getelementptr inbounds nuw i32, ptr %.val16, i64 %indvars.iv
  %12 = load i32, ptr %11, align 4
  %13 = sext i32 %12 to i64
  %14 = getelementptr i32, ptr %.val17, i64 %13
  %15 = getelementptr i8, ptr %14, i64 4
  %16 = load i32, ptr %15, align 4
  %17 = load i32, ptr %14, align 4
  %18 = add i32 %16, %.01421
  %19 = sub i32 %18, %17
  %20 = getelementptr i32, ptr %.val18, i64 %13
  %21 = getelementptr i8, ptr %20, i64 4
  %22 = load i32, ptr %21, align 4
  %23 = load i32, ptr %20, align 4
  %24 = add i32 %22, %.022
  %25 = sub i32 %24, %23
  %indvars.iv.next = add nuw nsw i64 %indvars.iv, 1
  %exitcond.not = icmp eq i64 %indvars.iv.next, %wide.trip.count
  br i1 %exitcond.not, label %.critedge, label %10, !llvm.loop !85

.critedge:                                        ; preds = %10, %4
  %.014.lcssa = phi i32 [ 0, %4 ], [ %19, %10 ]
  %.0.lcssa = phi i32 [ 0, %4 ], [ %25, %10 ]
  store i32 %.014.lcssa, ptr %2, align 4
  store i32 %.0.lcssa, ptr %3, align 4
  ret void
}